Certificate Request:
    Data:
        Version: 0 (0x0)
        Subject: C=CN, ST=Shanghai, L=Shanghai, O=Electric Cloud, OU=Sales Engineering, CN=demo.electric-cloud.com/emailAddress=shaohua.wen@gmail.com
        Subject Public Key Info:
            Public Key Algorithm: rsaEncryption
            RSA Public Key: (1024 bit)
                Modulus (1024 bit):
                    00:95:97:11:42:c7:0c:25:13:96:9c:24:43:32:e3:
                    a7:07:ea:a3:0a:e0:b8:d7:67:4f:45:d0:26:07:1c:
                    9b:50:bc:1d:40:f4:67:d8:d3:46:2b:b5:59:84:f8:
                    7b:c9:af:61:fd:ca:ac:4a:32:2a:75:b2:79:61:d9:
                    8b:f2:e6:fe:91:1e:c7:4b:3a:2b:21:eb:44:10:5a:
                    b8:3f:1b:13:46:a3:4a:d9:f9:51:c9:81:48:80:64:
                    f3:14:2f:9c:8e:56:c3:71:3e:8d:89:f0:a2:05:e4:
                    ca:88:8f:f5:27:4d:0d:69:a1:bf:fb:48:d5:ce:ce:
                    3e:3d:c4:4c:75:e3:ff:af:19
                Exponent: 65537 (0x10001)
        Attributes:
            a0:00
    Signature Algorithm: sha1WithRSAEncryption
        21:36:05:a9:10:be:34:c6:11:7a:3c:6a:12:12:04:d5:b2:6b:
        a4:d0:18:4c:cf:d7:5b:9f:7c:a2:90:0d:32:ac:1a:0a:46:44:
        b2:81:53:9e:88:68:c6:a1:28:47:3a:fc:7c:f4:28:ce:24:fa:
        c4:86:83:8d:45:40:34:9d:e6:de:ec:24:bb:72:bc:97:90:f7:
        0c:61:ad:86:52:7e:a2:7c:4e:0f:e4:57:a8:b4:93:7b:e2:8d:
        9a:b3:e1:63:36:99:46:7f:49:9f:26:5c:c9:ea:7d:af:88:09:
        46:52:fc:6d:a6:df:df:ed:f1:26:ad:61:c9:e9:01:57:f0:12:
        df:ca
-----BEGIN CERTIFICATE REQUEST-----
MIIB8TCCAVoCAQAwgbAxCzAJBgNVBAYTAkNOMREwDwYDVQQIEwhTaGFuZ2hhaTER
MA8GA1UEBxMIU2hhbmdoYWkxFzAVBgNVBAoTDkVsZWN0cmljIENsb3VkMRowGAYD
VQQLExFTYWxlcyBFbmdpbmVlcmluZzEgMB4GA1UEAxMXZGVtby5lbGVjdHJpYy1j
bG91ZC5jb20xJDAiBgkqhkiG9w0BCQEWFXNoYW9odWEud2VuQGdtYWlsLmNvbTCB
nzANBgkqhkiG9w0BAQEFAAOBjQAwgYkCgYEAlZcRQscMJROWnCRDMuOnB+qjCuC4
12dPRdAmBxybULwdQPRn2NNGK7VZhPh7ya9h/cqsSjIqdbJ5YdmL8ub+kR7HSzor
IetEEFq4PxsTRqNK2flRyYFIgGTzFC+cjlbDcT6NifCiBeTKiI/1J00NaaG/+0jV
zs4+PcRMdeP/rxkCAwEAAaAAMA0GCSqGSIb3DQEBBQUAA4GBACE2BakQvjTGEXo8
ahISBNWya6TQGEzP11uffKKQDTKsGgpGRLKBU56IaMahKEc6/Hz0KM4k+sSGg41F
QDSd5t7sJLtyvJeQ9wxhrYZSfqJ8Tg/kV6i0k3vijZqz4WM2mUZ/SZ8mXMnqfa+I
CUZS/G2m39/t8SatYcnpAVfwEt/K
-----END CERTIFICATE REQUEST-----
