Certificate:
    Data:
        Version: 1 (0x0)
        Serial Number:
            9d:9f:5e:8a:1b:08:ac:9a
        Signature Algorithm: sha1WithRSAEncryption
        Issuer: C=CN, ST=Shanghai, L=Shanghai, O=Electric Cloud, OU=Sales Engineering, CN=demo.electric-cloud.com/emailAddress=shaohua.wen@gmail.com
        Validity
            Not Before: Dec 21 16:41:10 2016 GMT
            Not After : Dec 19 16:41:10 2026 GMT
        Subject: C=CN, ST=Shanghai, L=Shanghai, O=Electric Cloud, OU=Sales Engineering, CN=demo.electric-cloud.com/emailAddress=shaohua.wen@gmail.com
        Subject Public Key Info:
            Public Key Algorithm: rsaEncryption
            RSA Public Key: (1024 bit)
                Modulus (1024 bit):
                    00:95:97:11:42:c7:0c:25:13:96:9c:24:43:32:e3:
                    a7:07:ea:a3:0a:e0:b8:d7:67:4f:45:d0:26:07:1c:
                    9b:50:bc:1d:40:f4:67:d8:d3:46:2b:b5:59:84:f8:
                    7b:c9:af:61:fd:ca:ac:4a:32:2a:75:b2:79:61:d9:
                    8b:f2:e6:fe:91:1e:c7:4b:3a:2b:21:eb:44:10:5a:
                    b8:3f:1b:13:46:a3:4a:d9:f9:51:c9:81:48:80:64:
                    f3:14:2f:9c:8e:56:c3:71:3e:8d:89:f0:a2:05:e4:
                    ca:88:8f:f5:27:4d:0d:69:a1:bf:fb:48:d5:ce:ce:
                    3e:3d:c4:4c:75:e3:ff:af:19
                Exponent: 65537 (0x10001)
    Signature Algorithm: sha1WithRSAEncryption
        37:00:0a:50:cc:d3:bc:9e:9d:d2:ad:16:81:1a:cc:4a:ca:2a:
        81:89:e0:ed:fe:ae:ed:91:62:26:b8:fc:7f:77:9c:ae:77:c4:
        84:25:a4:91:ea:ec:f4:62:3d:d7:d1:cb:ed:58:d8:4a:15:24:
        05:ae:c9:13:da:b3:5b:f3:4f:07:4f:30:8d:54:21:b8:a8:5f:
        e0:e9:cc:39:ef:0a:c0:39:a6:09:99:b7:c9:1a:bf:12:35:0f:
        9a:cf:21:ec:18:5a:f3:ad:f6:70:3e:47:70:fc:07:a0:f6:6c:
        42:00:53:f0:9f:d3:ad:51:31:cd:46:48:39:b5:e4:7c:95:42:
        97:be
-----BEGIN CERTIFICATE-----
MIIC2TCCAkICCQCdn16KGwismjANBgkqhkiG9w0BAQUFADCBsDELMAkGA1UEBhMC
Q04xETAPBgNVBAgTCFNoYW5naGFpMREwDwYDVQQHEwhTaGFuZ2hhaTEXMBUGA1UE
ChMORWxlY3RyaWMgQ2xvdWQxGjAYBgNVBAsTEVNhbGVzIEVuZ2luZWVyaW5nMSAw
HgYDVQQDExdkZW1vLmVsZWN0cmljLWNsb3VkLmNvbTEkMCIGCSqGSIb3DQEJARYV
c2hhb2h1YS53ZW5AZ21haWwuY29tMB4XDTE2MTIyMTE2NDExMFoXDTI2MTIxOTE2
NDExMFowgbAxCzAJBgNVBAYTAkNOMREwDwYDVQQIEwhTaGFuZ2hhaTERMA8GA1UE
BxMIU2hhbmdoYWkxFzAVBgNVBAoTDkVsZWN0cmljIENsb3VkMRowGAYDVQQLExFT
YWxlcyBFbmdpbmVlcmluZzEgMB4GA1UEAxMXZGVtby5lbGVjdHJpYy1jbG91ZC5j
b20xJDAiBgkqhkiG9w0BCQEWFXNoYW9odWEud2VuQGdtYWlsLmNvbTCBnzANBgkq
hkiG9w0BAQEFAAOBjQAwgYkCgYEAlZcRQscMJROWnCRDMuOnB+qjCuC412dPRdAm
BxybULwdQPRn2NNGK7VZhPh7ya9h/cqsSjIqdbJ5YdmL8ub+kR7HSzorIetEEFq4
PxsTRqNK2flRyYFIgGTzFC+cjlbDcT6NifCiBeTKiI/1J00NaaG/+0jVzs4+PcRM
deP/rxkCAwEAATANBgkqhkiG9w0BAQUFAAOBgQA3AApQzNO8np3SrRaBGsxKyiqB
ieDt/q7tkWImuPx/d5yud8SEJaSR6uz0Yj3X0cvtWNhKFSQFrskT2rNb808HTzCN
VCG4qF/g6cw57wrAOaYJmbfJGr8SNQ+azyHsGFrzrfZwPkdw/Aeg9mxCAFPwn9Ot
UTHNRkg5teR8lUKXvg==
-----END CERTIFICATE-----
-----BEGIN RSA PRIVATE KEY-----
MIICWwIBAAKBgQCVlxFCxwwlE5acJEMy46cH6qMK4LjXZ09F0CYHHJtQvB1A9GfY
00YrtVmE+HvJr2H9yqxKMip1snlh2Yvy5v6RHsdLOish60QQWrg/GxNGo0rZ+VHJ
gUiAZPMUL5yOVsNxPo2J8KIF5MqIj/UnTQ1pob/7SNXOzj49xEx14/+vGQIDAQAB
AoGAPa5HyMAoatVT4dg1+TLTebkvN1oH/ZG0pzW3qHEMPdMDQPhGJaqgIX+qhOCs
sjHl9u7t8b4TsepAkK9SPHsw9eZUUHJ0VEXgU5M2LxHPuagInkiCU/GUyHPpx7Yt
lRY0Q1/t1Z2jw+1LxWgsqghJxj7qv2Ftu5lsHh6PJerrlA0CQQDGaP6mltsBZbRI
p5vPOTMWww6bUF/EQchS3Lpr7DrV9qYPC0lS+w5dCJu617SSdRcoYpwneTsXmk5e
NtcNFwMfAkEAwQJ3S1ZLiN1Z59DcNmzJYkbEEkw195CmzbJQoedfqNc8xRxmCnD2
jdBbH1kXPp5JDQu6F6QNusEnzngtZQ1+xwJAXo5xNfFVBDB1H98JCVQIPgPNtUUz
rrNvBdZ93asiSxAWCbtmQW62ZK4SkZP1UYsN80gzhThoahI24P2ftXRPHwJABmZL
iE7zMDWOrpYJRzCyOLT5+VVXkL7WGQnpjIS8cj+4vxxi8cOvGSKoctCkaaob5/fU
ksYYwnF3HWx0rN4WrwJAFdoFZCPT12NzGUpXXixD10wXhP/YcH2wOl98wrkfNPhA
UTJYGYL8wPRmoqXTiBgE6dJ7Ps3+cINgOSjdXitxVA==
-----END RSA PRIVATE KEY-----
